target datalayout = "e-m:e-p270:32:32-p271:32:32-p272:64:64-i64:64-i128:128-f80:128-n8:16:32:64-S128"
target triple = "x86_64-pc-linux-gnu"

%"class.base::BasicStringPiece" = type { ptr, i64 }

@_ZN4base16BasicStringPieceINSt7__cxx1112basic_stringIcSt11char_traitsIcESaIcEEEEC1EPKcm = weak_odr unnamed_addr alias void (ptr, ptr, i64), ptr @_ZN4base16BasicStringPieceINSt7__cxx1112basic_stringIcSt11char_traitsIcESaIcEEEEC2EPKcm

; Function Attrs: mustprogress nounwind uwtable
define weak_odr noundef ptr @_ZNK4base16BasicStringPieceINSt7__cxx1112basic_stringIcSt11char_traitsIcESaIcEEEE4dataEv(ptr noundef nonnull align 8 dereferenceable(16) %0) #0 comdat align 2 {
  %2 = alloca ptr, align 8
  store ptr %0, ptr %2, align 8, !tbaa !3
  %3 = load ptr, ptr %2, align 8
  %4 = getelementptr inbounds nuw %"class.base::BasicStringPiece", ptr %3, i32 0, i32 0
  %5 = load ptr, ptr %4, align 8, !tbaa !8
  ret ptr %5
}

; Function Attrs: mustprogress nounwind uwtable
define weak_odr noundef i64 @_ZNK4base16BasicStringPieceINSt7__cxx1112basic_stringIcSt11char_traitsIcESaIcEEEE4sizeEv(ptr noundef nonnull align 8 dereferenceable(16) %0) #0 comdat align 2 {
  %2 = alloca ptr, align 8
  store ptr %0, ptr %2, align 8, !tbaa !3
  %3 = load ptr, ptr %2, align 8
  %4 = getelementptr inbounds nuw %"class.base::BasicStringPiece", ptr %3, i32 0, i32 1
  %5 = load i64, ptr %4, align 8, !tbaa !12
  ret i64 %5
}

; Function Attrs: mustprogress uwtable
define linkonce_odr { ptr, i64 } @_ZN4base8internal7substrTINSt7__cxx1112basic_stringIcSt11char_traitsIcESaIcEEEEENS_16BasicStringPieceIT_EERKSA_mm(ptr noundef nonnull align 8 dereferenceable(16) %0, i64 noundef %1, i64 noundef %2) #1 comdat {
  %4 = alloca %"class.base::BasicStringPiece", align 8
  %5 = alloca ptr, align 8
  %6 = alloca i64, align 8
  %7 = alloca i64, align 8
  store ptr %0, ptr %5, align 8, !tbaa !3
  store i64 %1, ptr %6, align 8, !tbaa !19
  store i64 %2, ptr %7, align 8, !tbaa !19
  %8 = load i64, ptr %6, align 8, !tbaa !19
  %9 = load ptr, ptr %5, align 8, !tbaa !3
  %10 = call noundef i64 @_ZNK4base16BasicStringPieceINSt7__cxx1112basic_stringIcSt11char_traitsIcESaIcEEEE4sizeEv(ptr noundef nonnull align 8 dereferenceable(16) %9)
  %11 = icmp ugt i64 %8, %10
  br i1 %11, label %12, label %15

12:                                               ; preds = %3
  %13 = load ptr, ptr %5, align 8, !tbaa !3
  %14 = call noundef i64 @_ZNK4base16BasicStringPieceINSt7__cxx1112basic_stringIcSt11char_traitsIcESaIcEEEE4sizeEv(ptr noundef nonnull align 8 dereferenceable(16) %13)
  store i64 %14, ptr %6, align 8, !tbaa !19
  br label %15

15:                                               ; preds = %12, %3
  %16 = load i64, ptr %7, align 8, !tbaa !19
  %17 = load ptr, ptr %5, align 8, !tbaa !3
  %18 = call noundef i64 @_ZNK4base16BasicStringPieceINSt7__cxx1112basic_stringIcSt11char_traitsIcESaIcEEEE4sizeEv(ptr noundef nonnull align 8 dereferenceable(16) %17)
  %19 = load i64, ptr %6, align 8, !tbaa !19
  %20 = sub i64 %18, %19
  %21 = icmp ugt i64 %16, %20
  br i1 %21, label %22, label %27

22:                                               ; preds = %15
  %23 = load ptr, ptr %5, align 8, !tbaa !3
  %24 = call noundef i64 @_ZNK4base16BasicStringPieceINSt7__cxx1112basic_stringIcSt11char_traitsIcESaIcEEEE4sizeEv(ptr noundef nonnull align 8 dereferenceable(16) %23)
  %25 = load i64, ptr %6, align 8, !tbaa !19
  %26 = sub i64 %24, %25
  store i64 %26, ptr %7, align 8, !tbaa !19
  br label %27

27:                                               ; preds = %22, %15
  %28 = load ptr, ptr %5, align 8, !tbaa !3
  %29 = call noundef ptr @_ZNK4base16BasicStringPieceINSt7__cxx1112basic_stringIcSt11char_traitsIcESaIcEEEE4dataEv(ptr noundef nonnull align 8 dereferenceable(16) %28)
  %30 = load i64, ptr %6, align 8, !tbaa !19
  %31 = getelementptr inbounds nuw i8, ptr %29, i64 %30
  %32 = load i64, ptr %7, align 8, !tbaa !19
  call void @_ZN4base16BasicStringPieceINSt7__cxx1112basic_stringIcSt11char_traitsIcESaIcEEEEC1EPKcm(ptr noundef nonnull align 8 dereferenceable(16) %4, ptr noundef %31, i64 noundef %32)
  %33 = load { ptr, i64 }, ptr %4, align 8
  ret { ptr, i64 } %33
}

; Function Attrs: mustprogress uwtable
define { ptr, i64 } @_ZN4base8internal6substrERKNS_16BasicStringPieceINSt7__cxx1112basic_stringIcSt11char_traitsIcESaIcEEEEEmm(ptr noundef nonnull align 8 dereferenceable(16) %0, i64 noundef %1, i64 noundef %2) #1 {
  %4 = alloca %"class.base::BasicStringPiece", align 8
  %5 = alloca ptr, align 8
  %6 = alloca i64, align 8
  %7 = alloca i64, align 8
  store ptr %0, ptr %5, align 8, !tbaa !3
  store i64 %1, ptr %6, align 8, !tbaa !19
  store i64 %2, ptr %7, align 8, !tbaa !19
  %8 = load ptr, ptr %5, align 8, !tbaa !3
  %9 = load i64, ptr %6, align 8, !tbaa !19
  %10 = load i64, ptr %7, align 8, !tbaa !19
  %11 = call { ptr, i64 } @_ZN4base8internal7substrTINSt7__cxx1112basic_stringIcSt11char_traitsIcESaIcEEEEENS_16BasicStringPieceIT_EERKSA_mm(ptr noundef nonnull align 8 dereferenceable(16) %8, i64 noundef %9, i64 noundef %10)
  %12 = getelementptr inbounds nuw { ptr, i64 }, ptr %4, i32 0, i32 0
  %13 = extractvalue { ptr, i64 } %11, 0
  store ptr %13, ptr %12, align 8
  %14 = getelementptr inbounds nuw { ptr, i64 }, ptr %4, i32 0, i32 1
  %15 = extractvalue { ptr, i64 } %11, 1
  store i64 %15, ptr %14, align 8
  %16 = load { ptr, i64 }, ptr %4, align 8
  ret { ptr, i64 } %16
}