; Function Attrs: mustprogress uwtable
define { ptr, i64 } @_ZN4base8internal6substrERKNS_16BasicStringPieceINSt7__cxx1112basic_stringIcSt11char_traitsIcESaIcEEEEEmm(ptr noundef nonnull readonly align 8 captures(none) dereferenceable(16) %0, i64 noundef %1, i64 noundef %2) local_unnamed_addr #1 {
  %4 = alloca %"class.base::BasicStringPiece", align 8
  call void @llvm.lifetime.start.p0(i64 16, ptr nonnull %4)
  %5 = getelementptr inbounds nuw i8, ptr %0, i64 8
  %6 = load i64, ptr %5, align 8, !tbaa !10
  %spec.select.i = tail call i64 @llvm.umin.i64(i64 %1, i64 %6)
  %7 = sub i64 %6, %spec.select.i
  %.0.i = tail call i64 @llvm.umin.i64(i64 %2, i64 %7)
  %8 = load ptr, ptr %0, align 8, !tbaa !3
  %9 = getelementptr inbounds nuw i8, ptr %8, i64 %spec.select.i
  call void @_ZN4base16BasicStringPieceINSt7__cxx1112basic_stringIcSt11char_traitsIcESaIcEEEEC1EPKcm(ptr noundef nonnull align 8 dereferenceable(16) %4, ptr noundef %9, i64 noundef %.0.i)
  %.fca.0.load.i = load ptr, ptr %4, align 8
  %.fca.0.insert.i = insertvalue { ptr, i64 } poison, ptr %.fca.0.load.i, 0
  %.fca.1.gep.i = getelementptr inbounds nuw i8, ptr %4, i64 8
  %.fca.1.load.i = load i64, ptr %.fca.1.gep.i, align 8
  %.fca.1.insert.i = insertvalue { ptr, i64 } %.fca.0.insert.i, i64 %.fca.1.load.i, 1
  call void @llvm.lifetime.end.p0(i64 16, ptr nonnull %4)
  ret { ptr, i64 } %.fca.1.insert.i
}